S'test.png, 222, 1568\ntest.png, 8172, 3369\ntest.png, 3134, 2711\ntest.png, 9123, 3815\ntest.png, 2109, 6136\ntest.png, 6611, 624\ntest.png, 4521, 7094\ntest.png, 7647, 4583\ntest.png, 7586, 3913\ntest.png, 319, 1038\n'
p0
.